target datalayout = "e-m:e-p270:32:32-p271:32:32-p272:64:64-i64:64-i128:128-f80:128-n8:16:32:64-S128"
target triple = "x86_64-pc-linux-gnu"

%struct.uv_loop_s = type { ptr, i32, [2 x ptr], %union.anon, ptr, i32, i64, i32, [2 x ptr], [2 x ptr], ptr, i32, i32, [2 x ptr], %union.pthread_mutex_t, %struct.uv_async_s, %union.pthread_rwlock_t, ptr, [2 x ptr], [2 x ptr], [2 x ptr], [2 x ptr], [2 x ptr], ptr, %struct.uv__io_s, i32, %struct.anon, i64, i64, [2 x i32], %struct.uv__io_s, %struct.uv_signal_s, i32, %struct.uv__io_s, ptr, i32 }
%union.anon = type { ptr }
%union.pthread_mutex_t = type { %struct.__pthread_mutex_s }
%struct.__pthread_mutex_s = type { i32, i32, i32, i32, i32, i16, i16, %struct.__pthread_internal_list }
%struct.__pthread_internal_list = type { ptr, ptr }
%struct.uv_async_s = type { ptr, ptr, i32, ptr, [2 x ptr], %union.anon.0, ptr, i32, ptr, [2 x ptr], i32 }
%union.anon.0 = type { [4 x ptr] }
%union.pthread_rwlock_t = type { %struct.__pthread_rwlock_arch_t }
%struct.__pthread_rwlock_arch_t = type { i32, i32, i32, i32, i32, i32, i32, i32, i8, [7 x i8], i64, i32 }
%struct.anon = type { ptr, i32 }
%struct.uv_signal_s = type { ptr, ptr, i32, ptr, [2 x ptr], %union.anon.1, ptr, i32, ptr, i32, %struct.anon.2, i32, i32 }
%union.anon.1 = type { [4 x ptr] }
%struct.anon.2 = type { ptr, ptr, ptr, i32 }
%struct.uv__io_s = type { ptr, [2 x ptr], [2 x ptr], i32, i32, i32 }

; Function Attrs: nounwind uwtable
define dso_local i32 @uv__platform_loop_init(ptr noundef %0) #0 {
  %2 = alloca ptr, align 8
  store ptr %0, ptr %2, align 8, !tbaa !4
  %3 = load ptr, ptr %2, align 8, !tbaa !4
  %4 = getelementptr inbounds nuw %struct.uv_loop_s, ptr %3, i32 0, i32 35
  store i32 -1, ptr %4, align 8, !tbaa !9
  %5 = load ptr, ptr %2, align 8, !tbaa !4
  %6 = getelementptr inbounds nuw %struct.uv_loop_s, ptr %5, i32 0, i32 34
  store ptr null, ptr %6, align 8, !tbaa !21
  %7 = load ptr, ptr %2, align 8, !tbaa !4
  %8 = call i32 @uv__epoll_init(ptr noundef %7)
  ret i32 %8
}

; Function Attrs: nounwind uwtable
define dso_local void @uv__platform_loop_delete(ptr noundef %0) #0 {
  %2 = alloca ptr, align 8
  store ptr %0, ptr %2, align 8, !tbaa !4
  %3 = load ptr, ptr %2, align 8, !tbaa !4
  %4 = getelementptr inbounds nuw %struct.uv_loop_s, ptr %3, i32 0, i32 35
  %5 = load i32, ptr %4, align 8, !tbaa !9
  %6 = icmp eq i32 %5, -1
  br i1 %6, label %7, label %8

7:                                                ; preds = %1
  br label %18

8:                                                ; preds = %1
  %9 = load ptr, ptr %2, align 8, !tbaa !4
  %10 = load ptr, ptr %2, align 8, !tbaa !4
  %11 = getelementptr inbounds nuw %struct.uv_loop_s, ptr %10, i32 0, i32 33
  call void @uv__io_stop(ptr noundef %9, ptr noundef %11, i32 noundef 1)
  %12 = load ptr, ptr %2, align 8, !tbaa !4
  %13 = getelementptr inbounds nuw %struct.uv_loop_s, ptr %12, i32 0, i32 35
  %14 = load i32, ptr %13, align 8, !tbaa !9
  %15 = call i32 @uv__close(i32 noundef %14)
  %16 = load ptr, ptr %2, align 8, !tbaa !4
  %17 = getelementptr inbounds nuw %struct.uv_loop_s, ptr %16, i32 0, i32 35
  store i32 -1, ptr %17, align 8, !tbaa !9
  br label %18

18:                                               ; preds = %8, %7
  ret void
}

; Function Attrs: nounwind uwtable
define dso_local i32 @uv__io_fork(ptr noundef %0) #0 {
  %2 = alloca i32, align 4
  %3 = alloca ptr, align 8
  %4 = alloca i32, align 4
  %5 = alloca ptr, align 8
  %6 = alloca i32, align 4
  store ptr %0, ptr %3, align 8, !tbaa !4
  call void @llvm.lifetime.start.p0(i64 4, ptr %4) #9
  call void @llvm.lifetime.start.p0(i64 8, ptr %5) #9
  %7 = load ptr, ptr %3, align 8, !tbaa !4
  %8 = getelementptr inbounds nuw %struct.uv_loop_s, ptr %7, i32 0, i32 34
  %9 = load ptr, ptr %8, align 8, !tbaa !21
  store ptr %9, ptr %5, align 8, !tbaa !22
  %10 = load ptr, ptr %3, align 8, !tbaa !4
  %11 = getelementptr inbounds nuw %struct.uv_loop_s, ptr %10, i32 0, i32 7
  %12 = load i32, ptr %11, align 8, !tbaa !23
  %13 = call i32 @uv__close(i32 noundef %12)
  %14 = load ptr, ptr %3, align 8, !tbaa !4
  %15 = getelementptr inbounds nuw %struct.uv_loop_s, ptr %14, i32 0, i32 7
  store i32 -1, ptr %15, align 8, !tbaa !23
  %16 = load ptr, ptr %3, align 8, !tbaa !4
  call void @uv__platform_loop_delete(ptr noundef %16)
  %17 = load ptr, ptr %3, align 8, !tbaa !4
  %18 = call i32 @uv__platform_loop_init(ptr noundef %17)
  store i32 %18, ptr %4, align 4, !tbaa !24
  %19 = load i32, ptr %4, align 4, !tbaa !24
  %20 = icmp ne i32 %19, 0
  br i1 %20, label %21, label %23

21:                                               ; preds = %1
  %22 = load i32, ptr %4, align 4, !tbaa !24
  store i32 %22, ptr %2, align 4
  store i32 1, ptr %6, align 4
  br label %27

23:                                               ; preds = %1
  %24 = load ptr, ptr %3, align 8, !tbaa !4
  %25 = load ptr, ptr %5, align 8, !tbaa !22
  %26 = call i32 @uv__inotify_fork(ptr noundef %24, ptr noundef %25)
  store i32 %26, ptr %2, align 4
  store i32 1, ptr %6, align 4
  br label %27

27:                                               ; preds = %23, %21
  call void @llvm.lifetime.end.p0(i64 8, ptr %5) #9
  call void @llvm.lifetime.end.p0(i64 4, ptr %4) #9
  %28 = load i32, ptr %2, align 4
  ret i32 %28
}