; Function Attrs: nounwind uwtable
define dso_local i32 @uv__io_fork(ptr noundef %0) local_unnamed_addr #0 {
  %2 = getelementptr inbounds nuw i8, ptr %0, i64 832
  %3 = load ptr, ptr %2, align 8, !tbaa !20
  %4 = getelementptr inbounds nuw i8, ptr %0, i64 64
  %5 = load i32, ptr %4, align 8, !tbaa !21
  %6 = tail call i32 @uv__close(i32 noundef %5) #13
  store i32 -1, ptr %4, align 8, !tbaa !21
  %7 = getelementptr inbounds nuw i8, ptr %0, i64 840
  %8 = load i32, ptr %7, align 8, !tbaa !4
  %9 = icmp eq i32 %8, -1
  br i1 %9, label %uv__platform_loop_delete.exit, label %10

10:                                               ; preds = %1
  %11 = getelementptr inbounds nuw i8, ptr %0, i64 776
  tail call void @uv__io_stop(ptr noundef nonnull %0, ptr noundef nonnull %11, i32 noundef 1) #13
  %12 = load i32, ptr %7, align 8, !tbaa !4
  %13 = tail call i32 @uv__close(i32 noundef %12) #13
  br label %uv__platform_loop_delete.exit

uv__platform_loop_delete.exit:                    ; preds = %1, %10
  store i32 -1, ptr %7, align 8, !tbaa !4
  store ptr null, ptr %2, align 8, !tbaa !20
  %14 = tail call i32 @uv__epoll_init(ptr noundef nonnull %0) #13
  %.not = icmp eq i32 %14, 0
  br i1 %.not, label %15, label %17

15:                                               ; preds = %uv__platform_loop_delete.exit
  %16 = tail call i32 @uv__inotify_fork(ptr noundef nonnull %0, ptr noundef %3) #13
  br label %17

17:                                               ; preds = %uv__platform_loop_delete.exit, %15
  %.0 = phi i32 [ %16, %15 ], [ %14, %uv__platform_loop_delete.exit ]
  ret i32 %.0
}